target datalayout = "e-m:e-p270:32:32-p271:32:32-p272:64:64-i64:64-i128:128-f80:128-n8:16:32:64-S128"
target triple = "x86_64-pc-linux-gnu"

%struct.strbuf = type { i64, i64, ptr }
%struct.list_objects_filter_options = type { %struct.strbuf, i32, i8, ptr, i64, i64, i32, i64, i64, ptr }

@.str.6 = private unnamed_addr constant [30 x i8] c"list-objects-filter-options.c\00", align 1
@.str.23 = private unnamed_addr constant [41 x i8] c"no filter_spec available for this filter\00", align 1

; Function Attrs: nounwind uwtable
define dso_local ptr @list_objects_filter_spec(ptr noundef %0) #0 {
  %2 = alloca ptr, align 8
  store ptr %0, ptr %2, align 8, !tbaa !8
  %3 = load ptr, ptr %2, align 8, !tbaa !8
  %4 = getelementptr inbounds nuw %struct.list_objects_filter_options, ptr %3, i32 0, i32 0
  %5 = getelementptr inbounds nuw %struct.strbuf, ptr %4, i32 0, i32 1
  %6 = load i64, ptr %5, align 8, !tbaa !37
  %7 = icmp ne i64 %6, 0
  br i1 %7, label %9, label %8

8:                                                ; preds = %1
  call void (ptr, i32, ptr, ...) @BUG_fl(ptr noundef @.str.6, i32 noundef 300, ptr noundef @.str.23) #9
  unreachable

9:                                                ; preds = %1
  %10 = load ptr, ptr %2, align 8, !tbaa !8
  %11 = getelementptr inbounds nuw %struct.list_objects_filter_options, ptr %10, i32 0, i32 0
  %12 = getelementptr inbounds nuw %struct.strbuf, ptr %11, i32 0, i32 2
  %13 = load ptr, ptr %12, align 8, !tbaa !31
  ret ptr %13
}